target datalayout = "e-m:e-p270:32:32-p271:32:32-p272:64:64-i64:64-i128:128-f80:128-n8:16:32:64-S128"
target triple = "x86_64-pc-linux-gnu"

%struct.b2Vec2 = type { float, float }
%struct.b2JointId = type { i32, i16, i16 }
%struct.b2JointSim = type { i32, i32, i32, i32, %struct.b2Vec2, %struct.b2Vec2, float, float, float, float, %union.anon }
%union.anon = type { %struct.b2PrismaticJoint }
%struct.b2PrismaticJoint = type { %struct.b2Vec2, %struct.b2Vec2, float, float, float, float, float, float, float, float, float, float, float, i32, i32, %struct.b2Vec2, %struct.b2Vec2, %struct.b2Vec2, %struct.b2Vec2, float, float, %struct.b2Softness, i8, i8, i8 }
%struct.b2Softness = type { float, float, float }
%struct.b2DistanceJoint = type { float, float, float, float, float, float, float, float, float, float, float, i32, i32, %struct.b2Vec2, %struct.b2Vec2, %struct.b2Vec2, %struct.b2Softness, float, i8, i8, i8 }

@b2_lengthUnitsPerMeter = external global float, align 4

; Function Attrs: inlinehint nounwind uwtable
define internal float @b2ClampFloat(float noundef %0, float noundef %1, float noundef %2) #3 {
  %4 = alloca float, align 4
  %5 = alloca float, align 4
  %6 = alloca float, align 4
  store float %0, ptr %4, align 4, !tbaa !3
  store float %1, ptr %5, align 4, !tbaa !3
  store float %2, ptr %6, align 4, !tbaa !3
  %7 = load float, ptr %4, align 4, !tbaa !3
  %8 = load float, ptr %5, align 4, !tbaa !3
  %9 = fcmp olt float %7, %8
  br i1 %9, label %10, label %12

10:                                               ; preds = %3
  %11 = load float, ptr %5, align 4, !tbaa !3
  br label %22

12:                                               ; preds = %3
  %13 = load float, ptr %4, align 4, !tbaa !3
  %14 = load float, ptr %6, align 4, !tbaa !3
  %15 = fcmp ogt float %13, %14
  br i1 %15, label %16, label %18

16:                                               ; preds = %12
  %17 = load float, ptr %6, align 4, !tbaa !3
  br label %20

18:                                               ; preds = %12
  %19 = load float, ptr %4, align 4, !tbaa !3
  br label %20

20:                                               ; preds = %18, %16
  %21 = phi float [ %17, %16 ], [ %19, %18 ]
  br label %22

22:                                               ; preds = %20, %10
  %23 = phi float [ %11, %10 ], [ %21, %20 ]
  ret float %23
}

; Function Attrs: nounwind uwtable
define void @b2DistanceJoint_SetLength(i64 %0, float noundef %1) #0 {
  %3 = alloca %struct.b2JointId, align 4
  %4 = alloca float, align 4
  %5 = alloca ptr, align 8
  %6 = alloca ptr, align 8
  store i64 %0, ptr %3, align 4
  store float %1, ptr %4, align 4, !tbaa !3
  call void @llvm.lifetime.start.p0(i64 8, ptr %5) #8
  %7 = load i64, ptr %3, align 4
  %8 = call ptr @b2GetJointSimCheckType(i64 %7, i32 noundef 0)
  store ptr %8, ptr %5, align 8, !tbaa !7
  call void @llvm.lifetime.start.p0(i64 8, ptr %6) #8
  %9 = load ptr, ptr %5, align 8, !tbaa !7
  %10 = getelementptr inbounds nuw %struct.b2JointSim, ptr %9, i32 0, i32 10
  store ptr %10, ptr %6, align 8, !tbaa !10
  %11 = load float, ptr %4, align 4, !tbaa !3
  %12 = load float, ptr @b2_lengthUnitsPerMeter, align 4, !tbaa !3
  %13 = fmul float 0x3F747AE140000000, %12
  %14 = load float, ptr @b2_lengthUnitsPerMeter, align 4, !tbaa !3
  %15 = fmul float 1.000000e+05, %14
  %16 = call float @b2ClampFloat(float noundef %11, float noundef %13, float noundef %15)
  %17 = load ptr, ptr %6, align 8, !tbaa !10
  %18 = getelementptr inbounds nuw %struct.b2DistanceJoint, ptr %17, i32 0, i32 0
  store float %16, ptr %18, align 4, !tbaa !12
  %19 = load ptr, ptr %6, align 8, !tbaa !10
  %20 = getelementptr inbounds nuw %struct.b2DistanceJoint, ptr %19, i32 0, i32 7
  store float 0.000000e+00, ptr %20, align 4, !tbaa !18
  %21 = load ptr, ptr %6, align 8, !tbaa !10
  %22 = getelementptr inbounds nuw %struct.b2DistanceJoint, ptr %21, i32 0, i32 8
  store float 0.000000e+00, ptr %22, align 4, !tbaa !19
  %23 = load ptr, ptr %6, align 8, !tbaa !10
  %24 = getelementptr inbounds nuw %struct.b2DistanceJoint, ptr %23, i32 0, i32 9
  store float 0.000000e+00, ptr %24, align 4, !tbaa !20
  call void @llvm.lifetime.end.p0(i64 8, ptr %6) #8
  call void @llvm.lifetime.end.p0(i64 8, ptr %5) #8
  ret void
}