; Function Attrs: nounwind uwtable
define void @b2DistanceJoint_SetLength(i64 %0, float noundef %1) local_unnamed_addr #0 {
  %3 = tail call ptr @b2GetJointSimCheckType(i64 %0, i32 noundef 0) #9
  %4 = getelementptr inbounds nuw i8, ptr %3, i64 48
  %5 = load float, ptr @b2_lengthUnitsPerMeter, align 4, !tbaa !3
  %6 = fmul float %5, 0x3F747AE140000000
  %7 = fmul float %5, 1.000000e+05
  %8 = fcmp olt float %1, %6
  %9 = fcmp ogt float %1, %7
  %10 = select i1 %9, float %7, float %1
  %11 = select i1 %8, float %6, float %10
  store float %11, ptr %4, align 4, !tbaa !7
  %12 = getelementptr inbounds nuw i8, ptr %3, i64 76
  store float 0.000000e+00, ptr %12, align 4, !tbaa !13
  %13 = getelementptr inbounds nuw i8, ptr %3, i64 80
  store float 0.000000e+00, ptr %13, align 4, !tbaa !14
  %14 = getelementptr inbounds nuw i8, ptr %3, i64 84
  store float 0.000000e+00, ptr %14, align 4, !tbaa !15
  ret void
}